
t1:     file format elf32-i386


Disassembly of section .init:

08048274 <_init>:
 8048274:	53                   	push   %ebx
 8048275:	83 ec 08             	sub    $0x8,%esp
 8048278:	e8 83 00 00 00       	call   8048300 <__x86.get_pc_thunk.bx>
 804827d:	81 c3 4f 16 00 00    	add    $0x164f,%ebx
 8048283:	8b 83 fc ff ff ff    	mov    -0x4(%ebx),%eax
 8048289:	85 c0                	test   %eax,%eax
 804828b:	74 05                	je     8048292 <_init+0x1e>
 804828d:	e8 1e 00 00 00       	call   80482b0 <__gmon_start__@plt>
 8048292:	83 c4 08             	add    $0x8,%esp
 8048295:	5b                   	pop    %ebx
 8048296:	c3                   	ret    

Disassembly of section .plt:

080482a0 <__gmon_start__@plt-0x10>:
 80482a0:	ff 35 d0 98 04 08    	pushl  0x80498d0
 80482a6:	ff 25 d4 98 04 08    	jmp    *0x80498d4
 80482ac:	00 00                	add    %al,(%eax)
	...

080482b0 <__gmon_start__@plt>:
 80482b0:	ff 25 d8 98 04 08    	jmp    *0x80498d8
 80482b6:	68 00 00 00 00       	push   $0x0
 80482bb:	e9 e0 ff ff ff       	jmp    80482a0 <_init+0x2c>

080482c0 <__libc_start_main@plt>:
 80482c0:	ff 25 dc 98 04 08    	jmp    *0x80498dc
 80482c6:	68 08 00 00 00       	push   $0x8
 80482cb:	e9 d0 ff ff ff       	jmp    80482a0 <_init+0x2c>

Disassembly of section .text:

080482d0 <_start>:
 80482d0:	31 ed                	xor    %ebp,%ebp
 80482d2:	5e                   	pop    %esi
 80482d3:	89 e1                	mov    %esp,%ecx
 80482d5:	83 e4 f0             	and    $0xfffffff0,%esp
 80482d8:	50                   	push   %eax
 80482d9:	54                   	push   %esp
 80482da:	52                   	push   %edx
 80482db:	68 f0 86 04 08       	push   $0x80486f0
 80482e0:	68 90 86 04 08       	push   $0x8048690
 80482e5:	51                   	push   %ecx
 80482e6:	56                   	push   %esi
 80482e7:	68 cb 83 04 08       	push   $0x80483cb
 80482ec:	e8 cf ff ff ff       	call   80482c0 <__libc_start_main@plt>
 80482f1:	f4                   	hlt    
 80482f2:	66 90                	xchg   %ax,%ax
 80482f4:	66 90                	xchg   %ax,%ax
 80482f6:	66 90                	xchg   %ax,%ax
 80482f8:	66 90                	xchg   %ax,%ax
 80482fa:	66 90                	xchg   %ax,%ax
 80482fc:	66 90                	xchg   %ax,%ax
 80482fe:	66 90                	xchg   %ax,%ax

08048300 <__x86.get_pc_thunk.bx>:
 8048300:	8b 1c 24             	mov    (%esp),%ebx
 8048303:	c3                   	ret    
 8048304:	66 90                	xchg   %ax,%ax
 8048306:	66 90                	xchg   %ax,%ax
 8048308:	66 90                	xchg   %ax,%ax
 804830a:	66 90                	xchg   %ax,%ax
 804830c:	66 90                	xchg   %ax,%ax
 804830e:	66 90                	xchg   %ax,%ax

08048310 <deregister_tm_clones>:
 8048310:	b8 bb 9a 04 08       	mov    $0x8049abb,%eax
 8048315:	2d b8 9a 04 08       	sub    $0x8049ab8,%eax
 804831a:	83 f8 06             	cmp    $0x6,%eax
 804831d:	76 1a                	jbe    8048339 <deregister_tm_clones+0x29>
 804831f:	b8 00 00 00 00       	mov    $0x0,%eax
 8048324:	85 c0                	test   %eax,%eax
 8048326:	74 11                	je     8048339 <deregister_tm_clones+0x29>
 8048328:	55                   	push   %ebp
 8048329:	89 e5                	mov    %esp,%ebp
 804832b:	83 ec 14             	sub    $0x14,%esp
 804832e:	68 b8 9a 04 08       	push   $0x8049ab8
 8048333:	ff d0                	call   *%eax
 8048335:	83 c4 10             	add    $0x10,%esp
 8048338:	c9                   	leave  
 8048339:	f3 c3                	repz ret 
 804833b:	90                   	nop
 804833c:	8d 74 26 00          	lea    0x0(%esi,%eiz,1),%esi

08048340 <register_tm_clones>:
 8048340:	b8 b8 9a 04 08       	mov    $0x8049ab8,%eax
 8048345:	2d b8 9a 04 08       	sub    $0x8049ab8,%eax
 804834a:	c1 f8 02             	sar    $0x2,%eax
 804834d:	89 c2                	mov    %eax,%edx
 804834f:	c1 ea 1f             	shr    $0x1f,%edx
 8048352:	01 d0                	add    %edx,%eax
 8048354:	d1 f8                	sar    %eax
 8048356:	74 1b                	je     8048373 <register_tm_clones+0x33>
 8048358:	ba 00 00 00 00       	mov    $0x0,%edx
 804835d:	85 d2                	test   %edx,%edx
 804835f:	74 12                	je     8048373 <register_tm_clones+0x33>
 8048361:	55                   	push   %ebp
 8048362:	89 e5                	mov    %esp,%ebp
 8048364:	83 ec 10             	sub    $0x10,%esp
 8048367:	50                   	push   %eax
 8048368:	68 b8 9a 04 08       	push   $0x8049ab8
 804836d:	ff d2                	call   *%edx
 804836f:	83 c4 10             	add    $0x10,%esp
 8048372:	c9                   	leave  
 8048373:	f3 c3                	repz ret 
 8048375:	8d 74 26 00          	lea    0x0(%esi,%eiz,1),%esi
 8048379:	8d bc 27 00 00 00 00 	lea    0x0(%edi,%eiz,1),%edi

08048380 <__do_global_dtors_aux>:
 8048380:	80 3d b7 9a 04 08 00 	cmpb   $0x0,0x8049ab7
 8048387:	75 13                	jne    804839c <__do_global_dtors_aux+0x1c>
 8048389:	55                   	push   %ebp
 804838a:	89 e5                	mov    %esp,%ebp
 804838c:	83 ec 08             	sub    $0x8,%esp
 804838f:	e8 7c ff ff ff       	call   8048310 <deregister_tm_clones>
 8048394:	c6 05 b7 9a 04 08 01 	movb   $0x1,0x8049ab7
 804839b:	c9                   	leave  
 804839c:	f3 c3                	repz ret 
 804839e:	66 90                	xchg   %ax,%ax

080483a0 <frame_dummy>:
 80483a0:	b8 dc 97 04 08       	mov    $0x80497dc,%eax
 80483a5:	8b 10                	mov    (%eax),%edx
 80483a7:	85 d2                	test   %edx,%edx
 80483a9:	75 05                	jne    80483b0 <frame_dummy+0x10>
 80483ab:	eb 93                	jmp    8048340 <register_tm_clones>
 80483ad:	8d 76 00             	lea    0x0(%esi),%esi
 80483b0:	ba 00 00 00 00       	mov    $0x0,%edx
 80483b5:	85 d2                	test   %edx,%edx
 80483b7:	74 f2                	je     80483ab <frame_dummy+0xb>
 80483b9:	55                   	push   %ebp
 80483ba:	89 e5                	mov    %esp,%ebp
 80483bc:	83 ec 14             	sub    $0x14,%esp
 80483bf:	50                   	push   %eax
 80483c0:	ff d2                	call   *%edx
 80483c2:	83 c4 10             	add    $0x10,%esp
 80483c5:	c9                   	leave  
 80483c6:	e9 75 ff ff ff       	jmp    8048340 <register_tm_clones>

080483cb <main>:
 80483cb:	ba e8 98 04 08       	mov    $0x80498e8,%edx
 80483d0:	ba 0a 00 00 00       	mov    $0xa,%edx
 80483d5:	b8 ec 98 04 08       	mov    $0x80498ec,%eax
 80483da:	b8 0a 00 00 00       	mov    $0xa,%eax
 80483df:	bf f0 98 04 08       	mov    $0x80498f0,%edi
 80483e4:	bf 99 0a 00 00       	mov    $0xa99,%edi
 80483e9:	bb f4 98 04 08       	mov    $0x80498f4,%ebx
 80483ee:	bb 1f 00 00 00       	mov    $0x1f,%ebx
 80483f3:	b9 f8 98 04 08       	mov    $0x80498f8,%ecx
 80483f8:	b9 65 00 00 00       	mov    $0x65,%ecx
 80483fd:	bc fc 98 04 08       	mov    $0x80498fc,%esp
 8048402:	bc 17 00 00 00       	mov    $0x17,%esp
 8048407:	89 3d f0 98 04 08    	mov    %edi,0x80498f0
 804840d:	bf 00 99 04 08       	mov    $0x8049900,%edi
 8048412:	bf 00 00 00 00       	mov    $0x0,%edi
 8048417:	a3 ec 98 04 08       	mov    %eax,0x80498ec
 804841c:	89 1d f4 98 04 08    	mov    %ebx,0x80498f4
 8048422:	89 0d f8 98 04 08    	mov    %ecx,0x80498f8
 8048428:	89 15 e8 98 04 08    	mov    %edx,0x80498e8
 804842e:	89 3d 00 99 04 08    	mov    %edi,0x8049900
 8048434:	89 25 fc 98 04 08    	mov    %esp,0x80498fc

0804843a <label2>:
 804843a:	b8 00 99 04 08       	mov    $0x8049900,%eax
 804843f:	bf ec 98 04 08       	mov    $0x80498ec,%edi
 8048444:	39 c7                	cmp    %eax,%edi
 8048446:	0f 84 9d 00 00 00    	je     80484e9 <label4>
 804844c:	a3 00 99 04 08       	mov    %eax,0x8049900
 8048451:	89 3d ec 98 04 08    	mov    %edi,0x80498ec

08048457 <label3>:
 8048457:	ba 00 00 00 00       	mov    $0x0,%edx
 804845c:	b8 04 99 04 08       	mov    $0x8049904,%eax
 8048461:	bf f4 98 04 08       	mov    $0x80498f4,%edi
 8048466:	bb fc 98 04 08       	mov    $0x80498fc,%ebx
 804846b:	89 f8                	mov    %edi,%eax
 804846d:	f7 e3                	mul    %ebx
 804846f:	b9 f8 98 04 08       	mov    $0x80498f8,%ecx
 8048474:	89 c0                	mov    %eax,%eax
 8048476:	01 c8                	add    %ecx,%eax
 8048478:	bb fc 98 04 08       	mov    $0x80498fc,%ebx
 804847d:	ba 00 00 00 00       	mov    $0x0,%edx
 8048482:	bb fc 98 04 08       	mov    $0x80498fc,%ebx
 8048487:	a3 04 99 04 08       	mov    %eax,0x8049904
 804848c:	b8 fc 98 04 08       	mov    $0x80498fc,%eax
 8048491:	bb 04 99 04 08       	mov    $0x8049904,%ebx
 8048496:	bc f0 98 04 08       	mov    $0x80498f0,%esp
 804849b:	89 d8                	mov    %ebx,%eax
 804849d:	f7 f4                	div    %esp
 804849f:	89 d0                	mov    %edx,%eax
 80484a1:	ba 00 99 04 08       	mov    $0x8049900,%edx
 80484a6:	89 04 95 27 99 04 08 	mov    %eax,0x8049927(,%edx,4)
 80484ad:	89 d2                	mov    %edx,%edx
 80484af:	83 c2 01             	add    $0x1,%edx
 80484b2:	89 3d f4 98 04 08    	mov    %edi,0x80498f4
 80484b8:	bf 08 99 04 08       	mov    $0x8049908,%edi
 80484bd:	83 ff 01             	cmp    $0x1,%edi
 80484c0:	0f 84 74 ff ff ff    	je     804843a <label2>
 80484c6:	a3 fc 98 04 08       	mov    %eax,0x80498fc
 80484cb:	89 1d 04 99 04 08    	mov    %ebx,0x8049904
 80484d1:	89 0d f8 98 04 08    	mov    %ecx,0x80498f8
 80484d7:	89 15 00 99 04 08    	mov    %edx,0x8049900
 80484dd:	89 3d 08 99 04 08    	mov    %edi,0x8049908
 80484e3:	89 25 f0 98 04 08    	mov    %esp,0x80498f0

080484e9 <label4>:
 80484e9:	b8 00 99 04 08       	mov    $0x8049900,%eax
 80484ee:	b8 00 00 00 00       	mov    $0x0,%eax
 80484f3:	a3 00 99 04 08       	mov    %eax,0x8049900

080484f8 <label5>:
 80484f8:	b8 00 99 04 08       	mov    $0x8049900,%eax
 80484fd:	ba ec 98 04 08       	mov    $0x80498ec,%edx
 8048502:	39 c2                	cmp    %eax,%edx
 8048504:	0f 84 24 01 00 00    	je     804862e <label12>
 804850a:	a3 00 99 04 08       	mov    %eax,0x8049900
 804850f:	89 15 ec 98 04 08    	mov    %edx,0x80498ec

08048515 <label6>:
 8048515:	ba 00 99 04 08       	mov    $0x8049900,%edx
 804851a:	bb 0c 99 04 08       	mov    $0x804990c,%ebx
 804851f:	89 d3                	mov    %edx,%ebx
 8048521:	83 c3 01             	add    $0x1,%ebx
 8048524:	89 15 00 99 04 08    	mov    %edx,0x8049900
 804852a:	89 1d 0c 99 04 08    	mov    %ebx,0x804990c

08048530 <label7>:
 8048530:	bb 0c 99 04 08       	mov    $0x804990c,%ebx
 8048535:	b9 ec 98 04 08       	mov    $0x80498ec,%ecx
 804853a:	39 d9                	cmp    %ebx,%ecx
 804853c:	0f 84 c9 00 00 00    	je     804860b <label11>
 8048542:	89 1d 0c 99 04 08    	mov    %ebx,0x804990c
 8048548:	89 0d ec 98 04 08    	mov    %ecx,0x80498ec

0804854e <label8>:
 804854e:	b8 00 99 04 08       	mov    $0x8049900,%eax
 8048553:	ba 10 99 04 08       	mov    $0x8049910,%edx
 8048558:	8b 14 85 27 99 04 08 	mov    0x8049927(,%eax,4),%edx
 804855f:	bb 0c 99 04 08       	mov    $0x804990c,%ebx
 8048564:	bc 14 99 04 08       	mov    $0x8049914,%esp
 8048569:	8b 24 9d 27 99 04 08 	mov    0x8049927(,%ebx,4),%esp
 8048570:	39 d4                	cmp    %edx,%esp
 8048572:	7e 45                	jle    80485b9 <label10>
 8048574:	89 25 14 99 04 08    	mov    %esp,0x8049914
 804857a:	a3 00 99 04 08       	mov    %eax,0x8049900
 804857f:	89 1d 0c 99 04 08    	mov    %ebx,0x804990c
 8048585:	89 15 10 99 04 08    	mov    %edx,0x8049910

0804858b <label9>:
 804858b:	b8 10 99 04 08       	mov    $0x8049910,%eax
 8048590:	ba 14 99 04 08       	mov    $0x8049914,%edx
 8048595:	89 c0                	mov    %eax,%eax
 8048597:	01 d0                	add    %edx,%eax
 8048599:	bb 18 99 04 08       	mov    $0x8049918,%ebx
 804859e:	89 d3                	mov    %edx,%ebx
 80485a0:	89 c2                	mov    %eax,%edx
 80485a2:	29 da                	sub    %ebx,%edx
 80485a4:	89 c0                	mov    %eax,%eax
 80485a6:	29 d0                	sub    %edx,%eax
 80485a8:	a3 10 99 04 08       	mov    %eax,0x8049910
 80485ad:	89 1d 18 99 04 08    	mov    %ebx,0x8049918
 80485b3:	89 15 14 99 04 08    	mov    %edx,0x8049914

080485b9 <label10>:
 80485b9:	b8 10 99 04 08       	mov    $0x8049910,%eax
 80485be:	bb 00 99 04 08       	mov    $0x8049900,%ebx
 80485c3:	89 04 9d 27 99 04 08 	mov    %eax,0x8049927(,%ebx,4)
 80485ca:	b9 14 99 04 08       	mov    $0x8049914,%ecx
 80485cf:	ba 0c 99 04 08       	mov    $0x804990c,%edx
 80485d4:	89 0c 95 27 99 04 08 	mov    %ecx,0x8049927(,%edx,4)
 80485db:	89 d2                	mov    %edx,%edx
 80485dd:	83 c2 01             	add    $0x1,%edx
 80485e0:	bf 08 99 04 08       	mov    $0x8049908,%edi
 80485e5:	83 ff 01             	cmp    $0x1,%edi
 80485e8:	0f 84 42 ff ff ff    	je     8048530 <label7>
 80485ee:	89 15 0c 99 04 08    	mov    %edx,0x804990c
 80485f4:	89 3d 08 99 04 08    	mov    %edi,0x8049908
 80485fa:	a3 10 99 04 08       	mov    %eax,0x8049910
 80485ff:	89 1d 00 99 04 08    	mov    %ebx,0x8049900
 8048605:	89 0d 14 99 04 08    	mov    %ecx,0x8049914

0804860b <label11>:
 804860b:	b8 00 99 04 08       	mov    $0x8049900,%eax
 8048610:	89 c0                	mov    %eax,%eax
 8048612:	83 c0 01             	add    $0x1,%eax
 8048615:	bb 08 99 04 08       	mov    $0x8049908,%ebx
 804861a:	83 fb 01             	cmp    $0x1,%ebx
 804861d:	0f 84 d5 fe ff ff    	je     80484f8 <label5>
 8048623:	a3 00 99 04 08       	mov    %eax,0x8049900
 8048628:	89 1d 08 99 04 08    	mov    %ebx,0x8049908

0804862e <label12>:
 804862e:	b8 00 99 04 08       	mov    $0x8049900,%eax
 8048633:	b8 00 00 00 00       	mov    $0x0,%eax
 8048638:	a3 00 99 04 08       	mov    %eax,0x8049900

0804863d <label13>:
 804863d:	ba 00 99 04 08       	mov    $0x8049900,%edx
 8048642:	b8 ec 98 04 08       	mov    $0x80498ec,%eax
 8048647:	39 d0                	cmp    %edx,%eax
 8048649:	0f 84 c6 fe ff ff    	je     8048515 <label6>
 804864f:	a3 ec 98 04 08       	mov    %eax,0x80498ec
 8048654:	89 15 00 99 04 08    	mov    %edx,0x8049900

0804865a <label14>:
 804865a:	bf 00 99 04 08       	mov    $0x8049900,%edi
 804865f:	b8 10 99 04 08       	mov    $0x8049910,%eax
 8048664:	8b 04 bd 27 99 04 08 	mov    0x8049927(,%edi,4),%eax
 804866b:	bb 08 99 04 08       	mov    $0x8049908,%ebx
 8048670:	83 fb 01             	cmp    $0x1,%ebx
 8048673:	74 c8                	je     804863d <label13>
 8048675:	89 3d 00 99 04 08    	mov    %edi,0x8049900
 804867b:	a3 10 99 04 08       	mov    %eax,0x8049910
 8048680:	89 1d 08 99 04 08    	mov    %ebx,0x8049908

08048686 <label15>:
 8048686:	66 90                	xchg   %ax,%ax
 8048688:	66 90                	xchg   %ax,%ax
 804868a:	66 90                	xchg   %ax,%ax
 804868c:	66 90                	xchg   %ax,%ax
 804868e:	66 90                	xchg   %ax,%ax

08048690 <__libc_csu_init>:
 8048690:	55                   	push   %ebp
 8048691:	57                   	push   %edi
 8048692:	56                   	push   %esi
 8048693:	53                   	push   %ebx
 8048694:	e8 67 fc ff ff       	call   8048300 <__x86.get_pc_thunk.bx>
 8048699:	81 c3 33 12 00 00    	add    $0x1233,%ebx
 804869f:	83 ec 0c             	sub    $0xc,%esp
 80486a2:	8b 6c 24 20          	mov    0x20(%esp),%ebp
 80486a6:	8d b3 0c ff ff ff    	lea    -0xf4(%ebx),%esi
 80486ac:	e8 c3 fb ff ff       	call   8048274 <_init>
 80486b1:	8d 83 08 ff ff ff    	lea    -0xf8(%ebx),%eax
 80486b7:	29 c6                	sub    %eax,%esi
 80486b9:	c1 fe 02             	sar    $0x2,%esi
 80486bc:	85 f6                	test   %esi,%esi
 80486be:	74 25                	je     80486e5 <__libc_csu_init+0x55>
 80486c0:	31 ff                	xor    %edi,%edi
 80486c2:	8d b6 00 00 00 00    	lea    0x0(%esi),%esi
 80486c8:	83 ec 04             	sub    $0x4,%esp
 80486cb:	ff 74 24 2c          	pushl  0x2c(%esp)
 80486cf:	ff 74 24 2c          	pushl  0x2c(%esp)
 80486d3:	55                   	push   %ebp
 80486d4:	ff 94 bb 08 ff ff ff 	call   *-0xf8(%ebx,%edi,4)
 80486db:	83 c7 01             	add    $0x1,%edi
 80486de:	83 c4 10             	add    $0x10,%esp
 80486e1:	39 f7                	cmp    %esi,%edi
 80486e3:	75 e3                	jne    80486c8 <__libc_csu_init+0x38>
 80486e5:	83 c4 0c             	add    $0xc,%esp
 80486e8:	5b                   	pop    %ebx
 80486e9:	5e                   	pop    %esi
 80486ea:	5f                   	pop    %edi
 80486eb:	5d                   	pop    %ebp
 80486ec:	c3                   	ret    
 80486ed:	8d 76 00             	lea    0x0(%esi),%esi

080486f0 <__libc_csu_fini>:
 80486f0:	f3 c3                	repz ret 

Disassembly of section .fini:

080486f4 <_fini>:
 80486f4:	53                   	push   %ebx
 80486f5:	83 ec 08             	sub    $0x8,%esp
 80486f8:	e8 03 fc ff ff       	call   8048300 <__x86.get_pc_thunk.bx>
 80486fd:	81 c3 cf 11 00 00    	add    $0x11cf,%ebx
 8048703:	83 c4 08             	add    $0x8,%esp
 8048706:	5b                   	pop    %ebx
 8048707:	c3                   	ret    
